; Function Attrs: mustprogress nounwind uwtable
define hidden void @_ZN12HotSpotJVMCI13BytecodeFrame14set_BEFORE_BCIEP8JVMCIEnvi(ptr nocapture noundef readnone %0, i32 noundef %1) local_unnamed_addr #0 align 2 {
  %3 = load ptr, ptr @_ZN12HotSpotJVMCI13BytecodeFrame6_klassE, align 8
  %4 = getelementptr inbounds i8, ptr %3, i64 112
  %5 = load ptr, ptr %4, align 8
  %6 = icmp eq ptr %5, null
  br i1 %6, label %_ZN13InstanceKlass21static_field_base_rawEv.exit, label %7

7:                                                ; preds = %2
  %8 = load ptr, ptr @_ZN14AccessInternal15RuntimeDispatchILm548932EP7oopDescLNS_11BarrierTypeE2EE10_load_funcE, align 8
  %9 = tail call noundef ptr %8(ptr noundef nonnull %5) #13
  %10 = ptrtoint ptr %9 to i64
  br label %_ZN13InstanceKlass21static_field_base_rawEv.exit

_ZN13InstanceKlass21static_field_base_rawEv.exit: ; preds = %2, %7
  %11 = phi i64 [ %10, %7 ], [ 0, %2 ]
  %12 = load i32, ptr @_ZN12HotSpotJVMCI13BytecodeFrame18_BEFORE_BCI_offsetE, align 4
  %13 = sext i32 %12 to i64
  %14 = add nsw i64 %11, %13
  %15 = inttoptr i64 %14 to ptr
  store i32 %1, ptr %15, align 4
  ret void
}